(dp1
S'core'
p2
ccopy_reg
_reconstructor
p3
(cprotoflo.components
CachedComponentCollection
p4
c__builtin__
object
p5
NtRp6
(dp7
S'moduleName'
p8
S'protoflo.components.core'
p9
sS'description'
p10
NsS'components'
p11
(lp12
g3
(cprotoflo.components
CachedComponent
p13
g5
NtRp14
(dp15
S'fullName'
p16
S'core/Drop'
p17
sS'dropin'
p18
g6
sS'name'
p19
S'Drop'
p20
sg10
S'This component drops every packet \n\t\tit receives with no\taction'
p21
sbag3
(g13
g5
NtRp22
(dp23
g16
S'core/Output'
p24
sg18
g6
sg19
S'Output'
p25
sg10
S'This component receives input on a single inport, and\n\t\tsends the data items directly to the console'
p26
sbag3
(g13
g5
NtRp27
(dp28
g16
S'core/Kick'
p29
sg18
g6
sg19
S'Kick'
p30
sg10
S'This component generates a single packet and sends it to\n\t\tthe output port. Mostly usable for debugging, but can also be useful\n\t\tfor starting up networks.'
p31
sbasbs.